Certificate Request:
    Data:
        Version: 1 (0x0)
        Subject: C = RU, ST = Moskovskaya oblast', L = Volokolamsk, O = Home, OU = IT, CN = *.home.me
        Subject Public Key Info:
            Public Key Algorithm: rsaEncryption
                Public-Key: (2048 bit)
                Modulus:
                    00:9d:23:7e:75:fa:6d:a1:06:b6:e4:a7:5e:8a:af:
                    cf:19:43:49:76:23:54:69:49:44:6b:29:da:22:92:
                    28:bc:4e:9b:63:67:5b:d9:3f:a6:de:2e:94:cc:38:
                    af:04:1c:d4:3c:0f:87:76:02:d0:7b:24:6b:e6:7c:
                    a0:7a:45:13:c9:10:e9:77:7e:b0:11:e9:09:15:22:
                    dc:04:a7:35:31:d6:5b:5f:7f:54:04:00:75:68:51:
                    1a:04:ae:86:08:00:f8:4d:f6:a7:1a:70:c9:c5:a9:
                    f1:be:7a:d5:f4:cb:01:3b:6d:2d:b1:a5:74:c6:22:
                    b8:7e:bd:bd:e6:7f:36:b1:6d:70:be:f0:2a:bc:7e:
                    b4:bd:32:2e:8a:8f:f9:3c:6a:40:c1:7c:42:e2:e3:
                    db:fa:35:9b:c0:31:28:6e:aa:ff:39:9f:b4:56:9e:
                    e0:13:e2:05:f0:8f:e1:b6:d6:d0:f6:84:cd:d7:34:
                    4b:f7:97:e7:0b:81:6e:82:95:18:df:e1:68:86:58:
                    ce:fa:d4:e5:81:8b:fd:6d:96:4e:77:9d:9d:c6:c3:
                    9f:a2:ac:f1:e4:c3:5e:0e:1a:b2:ff:6a:ad:c7:f1:
                    38:63:66:64:bf:99:21:00:88:97:12:88:8e:35:c8:
                    5c:17:a0:65:0f:1b:6c:fb:10:68:17:99:de:eb:bf:
                    bd:db
                Exponent: 65537 (0x10001)
        Attributes:
            (none)
            Requested Extensions:
    Signature Algorithm: sha256WithRSAEncryption
    Signature Value:
        93:44:19:2a:80:1c:ff:99:e4:ff:9c:62:ed:ec:39:4d:e6:04:
        1e:db:af:17:03:b2:a9:53:fb:a6:4a:7d:43:90:87:66:34:f7:
        24:8d:c7:16:9a:af:d3:36:06:30:00:1f:9b:2b:1e:8b:f9:56:
        6b:66:22:b1:b6:96:fd:98:60:98:a6:98:24:42:84:2a:88:3e:
        e2:24:f9:42:9b:ba:bd:c7:5a:b4:4e:5d:e4:fa:a8:66:f4:1f:
        20:6d:1d:17:e4:7c:c1:15:87:6c:2e:25:e8:bb:fe:34:f4:5c:
        05:59:41:d5:71:05:af:7d:78:4b:f9:8c:f8:a5:d6:58:55:c2:
        42:d5:3f:24:d4:c7:55:d6:07:f4:0f:59:48:f2:54:67:d4:b3:
        ec:16:7e:54:8d:42:a0:43:7f:60:4f:9e:c1:4f:ba:95:cc:36:
        cc:7b:5d:fa:04:fb:1a:21:d2:af:cd:f4:ba:b6:35:86:7c:13:
        f3:a5:5b:08:f7:6c:76:23:d0:0f:f2:2b:e2:32:dd:86:0e:a0:
        c3:5b:05:d8:30:e3:7c:a2:e5:51:86:1c:f1:e1:1a:75:ff:bc:
        c1:31:47:ab:8b:82:c1:3c:52:ed:4d:8b:59:e6:2a:5d:ce:1d:
        4a:08:20:68:84:79:a3:4d:d9:cd:9e:69:5a:f6:65:0a:f2:7e:
        2e:60:7e:11
-----BEGIN CERTIFICATE REQUEST-----
MIICtjCCAZ4CAQAwcTELMAkGA1UEBhMCUlUxHDAaBgNVBAgME01vc2tvdnNrYXlh
IG9ibGFzdCcxFDASBgNVBAcMC1ZvbG9rb2xhbXNrMQ0wCwYDVQQKDARIb21lMQsw
CQYDVQQLDAJJVDESMBAGA1UEAwwJKi5ob21lLm1lMIIBIjANBgkqhkiG9w0BAQEF
AAOCAQ8AMIIBCgKCAQEAnSN+dfptoQa25Kdeiq/PGUNJdiNUaUlEaynaIpIovE6b
Y2db2T+m3i6UzDivBBzUPA+HdgLQeyRr5nygekUTyRDpd36wEekJFSLcBKc1MdZb
X39UBAB1aFEaBK6GCAD4TfanGnDJxanxvnrV9MsBO20tsaV0xiK4fr295n82sW1w
vvAqvH60vTIuio/5PGpAwXxC4uPb+jWbwDEobqr/OZ+0Vp7gE+IF8I/httbQ9oTN
1zRL95fnC4FugpUY3+FohljO+tTlgYv9bZZOd52dxsOfoqzx5MNeDhqy/2qtx/E4
Y2Zkv5khAIiXEoiONchcF6BlDxts+xBoF5ne67+92wIDAQABoAAwDQYJKoZIhvcN
AQELBQADggEBAJNEGSqAHP+Z5P+cYu3sOU3mBB7brxcDsqlT+6ZKfUOQh2Y09ySN
xxaar9M2BjAAH5srHov5VmtmIrG2lv2YYJimmCRChCqIPuIk+UKbur3HWrROXeT6
qGb0HyBtHRfkfMEVh2wuJei7/jT0XAVZQdVxBa99eEv5jPil1lhVwkLVPyTUx1XW
B/QPWUjyVGfUs+wWflSNQqBDf2BPnsFPupXMNsx7XfoE+xoh0q/N9Lq2NYZ8E/Ol
Wwj3bHYj0A/yK+Iy3YYOoMNbBdgw43yi5VGGHPHhGnX/vMExR6uLgsE8Uu1Ni1nm
Kl3OHUoIIGiEeaNN2c2eaVr2ZQryfi5gfhE=
-----END CERTIFICATE REQUEST-----
