Certificate:
    Data:
        Version: 3 (0x2)
        Serial Number:
            68:bd:a6:f8:6f:81:f2:22:95:8c:38:fd:93:04:d1:d2:a4:ab:2d:6c
        Signature Algorithm: sha256WithRSAEncryption
        Issuer: C = RU, ST = Moskovskaya oblast', L = Volokolamsk, O = Home, OU = IT, CN = *.local
        Validity
            Not Before: Jan 16 12:30:56 2024 GMT
            Not After : Jan 15 12:30:56 2025 GMT
        Subject: C = RU, ST = Moskovskaya oblast', L = Volokolamsk, O = Home, OU = IT, CN = *.local
        Subject Public Key Info:
            Public Key Algorithm: rsaEncryption
                Public-Key: (2048 bit)
                Modulus:
                    00:ad:b7:85:87:c7:d2:d5:cb:14:0e:ab:1c:20:cc:
                    5d:59:44:6f:8f:bb:80:5c:33:3f:70:f8:6e:63:bc:
                    f3:76:59:01:12:36:8c:be:27:1a:58:86:c5:1a:dc:
                    7c:5a:c3:a1:56:03:ed:4d:95:3e:51:f1:a3:73:9c:
                    0b:af:8d:b8:a6:cd:67:2f:af:0c:f7:44:a2:06:ea:
                    45:6f:b3:4c:4f:2f:10:9d:5a:01:77:4a:cf:cd:21:
                    d6:38:aa:53:d8:c1:7e:fa:aa:20:25:19:bc:e3:2c:
                    8c:cc:56:09:86:16:de:72:4f:26:b0:29:9b:c7:17:
                    6d:5e:b9:06:bf:85:41:b8:60:20:22:79:cd:dd:f1:
                    83:a8:1a:eb:22:d3:51:75:16:e2:46:97:95:cf:0e:
                    4b:b0:0a:df:7e:49:fc:d3:e5:78:03:f5:58:a8:62:
                    42:2a:e9:81:fe:84:65:f9:d4:e7:00:f0:43:84:b8:
                    d4:d3:dd:d5:3f:25:a0:4d:a8:4d:15:c1:34:fc:34:
                    bf:76:d7:bb:a4:8f:2a:3a:fd:70:5c:e8:04:b1:1f:
                    3e:50:39:19:fc:b7:31:27:82:31:d4:24:35:1e:f9:
                    3f:ad:93:8e:9c:2b:72:cb:ec:8e:9f:88:19:31:50:
                    5f:48:94:69:e9:82:72:93:2b:f9:fe:e4:8f:7a:b9:
                    33:87
                Exponent: 65537 (0x10001)
        X509v3 extensions:
            X509v3 Subject Key Identifier: 
                CB:8C:C0:12:A1:16:4D:7D:BA:B3:E3:EE:BE:38:1D:BE:E2:ED:DE:50
            X509v3 Authority Key Identifier: 
                CB:8C:C0:12:A1:16:4D:7D:BA:B3:E3:EE:BE:38:1D:BE:E2:ED:DE:50
            X509v3 Basic Constraints: critical
                CA:TRUE
    Signature Algorithm: sha256WithRSAEncryption
    Signature Value:
        20:0a:a9:26:24:c4:db:24:7a:90:9c:2d:16:b4:f3:47:85:fa:
        82:93:31:68:ff:36:14:1f:eb:46:fd:e5:e5:68:81:a2:4a:65:
        4b:d5:15:94:4e:cf:1e:b5:b0:fc:00:7d:16:90:c4:23:b9:87:
        e3:a8:d8:c1:70:6e:1c:6c:e9:e2:ef:bf:a2:b2:2e:18:e4:b7:
        c8:e7:83:80:3a:f8:4d:40:c5:51:44:a8:ef:87:42:fa:eb:f1:
        4e:33:bd:3e:5f:84:4e:aa:ea:c3:a1:84:42:e7:4c:55:d5:ef:
        9b:3e:36:17:b8:89:00:65:64:91:43:99:56:02:80:92:ab:bf:
        7b:ba:c0:69:53:af:51:cf:04:f9:b0:90:7c:20:05:85:a5:c9:
        1b:12:c9:17:79:18:a3:7f:e9:57:10:6b:72:9f:90:e1:71:70:
        10:2c:82:42:c3:ce:e2:1f:e8:02:53:88:10:17:35:7e:02:7d:
        75:11:4d:3b:30:af:1f:6f:c6:3c:d0:4c:82:fb:9c:5f:bd:7d:
        65:12:a8:cd:b1:b7:5a:4e:0d:61:c5:01:cc:b4:04:6b:14:d3:
        41:0a:77:76:6a:4e:07:1c:2d:14:49:2e:03:b8:26:26:b8:e6:
        09:13:99:3a:58:0d:1c:6e:bf:47:21:9c:64:02:18:4e:8f:1b:
        a0:90:d1:c7
-----BEGIN CERTIFICATE-----
MIIDvzCCAqegAwIBAgIUaL2m+G+B8iKVjDj9kwTR0qSrLWwwDQYJKoZIhvcNAQEL
BQAwbzELMAkGA1UEBhMCUlUxHDAaBgNVBAgME01vc2tvdnNrYXlhIG9ibGFzdCcx
FDASBgNVBAcMC1ZvbG9rb2xhbXNrMQ0wCwYDVQQKDARIb21lMQswCQYDVQQLDAJJ
VDEQMA4GA1UEAwwHKi5sb2NhbDAeFw0yNDAxMTYxMjMwNTZaFw0yNTAxMTUxMjMw
NTZaMG8xCzAJBgNVBAYTAlJVMRwwGgYDVQQIDBNNb3Nrb3Zza2F5YSBvYmxhc3Qn
MRQwEgYDVQQHDAtWb2xva29sYW1zazENMAsGA1UECgwESG9tZTELMAkGA1UECwwC
SVQxEDAOBgNVBAMMByoubG9jYWwwggEiMA0GCSqGSIb3DQEBAQUAA4IBDwAwggEK
AoIBAQCtt4WHx9LVyxQOqxwgzF1ZRG+Pu4BcMz9w+G5jvPN2WQESNoy+JxpYhsUa
3Hxaw6FWA+1NlT5R8aNznAuvjbimzWcvrwz3RKIG6kVvs0xPLxCdWgF3Ss/NIdY4
qlPYwX76qiAlGbzjLIzMVgmGFt5yTyawKZvHF21euQa/hUG4YCAiec3d8YOoGusi
01F1FuJGl5XPDkuwCt9+SfzT5XgD9VioYkIq6YH+hGX51OcA8EOEuNTT3dU/JaBN
qE0VwTT8NL9217ukjyo6/XBc6ASxHz5QORn8tzEngjHUJDUe+T+tk46cK3LL7I6f
iBkxUF9IlGnpgnKTK/n+5I96uTOHAgMBAAGjUzBRMB0GA1UdDgQWBBTLjMASoRZN
fbqz4+6+OB2+4u3eUDAfBgNVHSMEGDAWgBTLjMASoRZNfbqz4+6+OB2+4u3eUDAP
BgNVHRMBAf8EBTADAQH/MA0GCSqGSIb3DQEBCwUAA4IBAQAgCqkmJMTbJHqQnC0W
tPNHhfqCkzFo/zYUH+tG/eXlaIGiSmVL1RWUTs8etbD8AH0WkMQjuYfjqNjBcG4c
bOni77+isi4Y5LfI54OAOvhNQMVRRKjvh0L66/FOM70+X4ROqurDoYRC50xV1e+b
PjYXuIkAZWSRQ5lWAoCSq797usBpU69RzwT5sJB8IAWFpckbEskXeRijf+lXEGty
n5DhcXAQLIJCw87iH+gCU4gQFzV+An11EU07MK8fb8Y80EyC+5xfvX1lEqjNsbda
Tg1hxQHMtARrFNNBCnd2ak4HHC0USS4DuCYmuOYJE5k6WA0cbr9HIZxkAhhOjxug
kNHH
-----END CERTIFICATE-----
