Certificate Request:
    Data:
        Version: 1 (0x0)
        Subject: C = RU, ST = Moskovskaya oblast', L = Volokolamsk, O = Home, OU = IT, CN = *.local
        Subject Public Key Info:
            Public Key Algorithm: rsaEncryption
                Public-Key: (2048 bit)
                Modulus:
                    00:ad:b7:85:87:c7:d2:d5:cb:14:0e:ab:1c:20:cc:
                    5d:59:44:6f:8f:bb:80:5c:33:3f:70:f8:6e:63:bc:
                    f3:76:59:01:12:36:8c:be:27:1a:58:86:c5:1a:dc:
                    7c:5a:c3:a1:56:03:ed:4d:95:3e:51:f1:a3:73:9c:
                    0b:af:8d:b8:a6:cd:67:2f:af:0c:f7:44:a2:06:ea:
                    45:6f:b3:4c:4f:2f:10:9d:5a:01:77:4a:cf:cd:21:
                    d6:38:aa:53:d8:c1:7e:fa:aa:20:25:19:bc:e3:2c:
                    8c:cc:56:09:86:16:de:72:4f:26:b0:29:9b:c7:17:
                    6d:5e:b9:06:bf:85:41:b8:60:20:22:79:cd:dd:f1:
                    83:a8:1a:eb:22:d3:51:75:16:e2:46:97:95:cf:0e:
                    4b:b0:0a:df:7e:49:fc:d3:e5:78:03:f5:58:a8:62:
                    42:2a:e9:81:fe:84:65:f9:d4:e7:00:f0:43:84:b8:
                    d4:d3:dd:d5:3f:25:a0:4d:a8:4d:15:c1:34:fc:34:
                    bf:76:d7:bb:a4:8f:2a:3a:fd:70:5c:e8:04:b1:1f:
                    3e:50:39:19:fc:b7:31:27:82:31:d4:24:35:1e:f9:
                    3f:ad:93:8e:9c:2b:72:cb:ec:8e:9f:88:19:31:50:
                    5f:48:94:69:e9:82:72:93:2b:f9:fe:e4:8f:7a:b9:
                    33:87
                Exponent: 65537 (0x10001)
        Attributes:
            (none)
            Requested Extensions:
    Signature Algorithm: sha256WithRSAEncryption
    Signature Value:
        94:bb:2b:bc:62:d7:36:39:45:e4:25:44:a8:c8:ba:24:d1:a5:
        79:1a:da:f8:9e:59:84:f0:f2:d5:91:95:88:79:7a:5e:d2:7e:
        c6:f3:30:e5:eb:63:83:e1:f0:0d:36:a3:cd:fa:bf:9d:a8:b6:
        ef:f8:22:e2:90:eb:f9:17:45:93:16:9b:d8:e8:ea:70:86:1e:
        8f:ce:76:13:79:7b:7e:9d:88:94:14:93:4d:13:fd:1d:03:a2:
        b1:62:06:a2:c9:ab:56:4d:27:03:39:29:4d:69:29:39:f9:3a:
        f2:c0:48:25:c7:18:2e:b7:cf:a3:18:7f:07:b8:3f:c7:f5:0d:
        2e:2c:6d:ec:16:75:a7:21:da:b0:2c:12:d2:3a:49:36:1d:5f:
        fb:0d:3a:98:2f:82:b8:c2:db:56:d4:fd:ba:6e:5c:d9:e1:11:
        90:ba:9d:33:bc:05:3f:7e:a0:2b:e9:78:02:b3:b8:49:75:a2:
        d1:9d:e1:3c:0c:58:8d:65:e3:19:a8:1a:d7:4b:ef:16:3e:84:
        dd:b1:b2:23:23:5d:8c:ce:5d:b4:dd:18:09:6e:a9:f5:8b:22:
        1f:31:6a:10:38:d4:47:57:b9:4e:37:1d:af:75:dc:a4:6c:c1:
        2e:17:f1:f7:b8:cb:fd:ef:97:c6:a0:d6:e8:b1:b8:f9:38:dd:
        fe:4d:c5:ec
-----BEGIN CERTIFICATE REQUEST-----
MIICtDCCAZwCAQAwbzELMAkGA1UEBhMCUlUxHDAaBgNVBAgME01vc2tvdnNrYXlh
IG9ibGFzdCcxFDASBgNVBAcMC1ZvbG9rb2xhbXNrMQ0wCwYDVQQKDARIb21lMQsw
CQYDVQQLDAJJVDEQMA4GA1UEAwwHKi5sb2NhbDCCASIwDQYJKoZIhvcNAQEBBQAD
ggEPADCCAQoCggEBAK23hYfH0tXLFA6rHCDMXVlEb4+7gFwzP3D4bmO883ZZARI2
jL4nGliGxRrcfFrDoVYD7U2VPlHxo3OcC6+NuKbNZy+vDPdEogbqRW+zTE8vEJ1a
AXdKz80h1jiqU9jBfvqqICUZvOMsjMxWCYYW3nJPJrApm8cXbV65Br+FQbhgICJ5
zd3xg6ga6yLTUXUW4kaXlc8OS7AK335J/NPleAP1WKhiQirpgf6EZfnU5wDwQ4S4
1NPd1T8loE2oTRXBNPw0v3bXu6SPKjr9cFzoBLEfPlA5Gfy3MSeCMdQkNR75P62T
jpwrcsvsjp+IGTFQX0iUaemCcpMr+f7kj3q5M4cCAwEAAaAAMA0GCSqGSIb3DQEB
CwUAA4IBAQCUuyu8Ytc2OUXkJUSoyLok0aV5Gtr4nlmE8PLVkZWIeXpe0n7G8zDl
62OD4fANNqPN+r+dqLbv+CLikOv5F0WTFpvY6Opwhh6PznYTeXt+nYiUFJNNE/0d
A6KxYgaiyatWTScDOSlNaSk5+TrywEglxxgut8+jGH8HuD/H9Q0uLG3sFnWnIdqw
LBLSOkk2HV/7DTqYL4K4wttW1P26blzZ4RGQup0zvAU/fqAr6XgCs7hJdaLRneE8
DFiNZeMZqBrXS+8WPoTdsbIjI12Mzl203RgJbqn1iyIfMWoQONRHV7lONx2vddyk
bMEuF/H3uMv975fGoNbosbj5ON3+TcXs
-----END CERTIFICATE REQUEST-----
