Certificate:
    Data:
        Version: 3 (0x2)
        Serial Number:
            79:95:a0:c1:73:a7:23:5e:5a:89:26:f4:35:59:a7:af:58:a4:f5:1a
        Signature Algorithm: sha256WithRSAEncryption
        Issuer: C = RU, ST = Moskovskaya oblast', L = Volokolamsk, O = Home, OU = IT, CN = *.home.me
        Validity
            Not Before: Dec  7 12:31:15 2023 GMT
            Not After : Dec  6 12:31:15 2024 GMT
        Subject: C = RU, ST = Moskovskaya oblast', L = Volokolamsk, O = Home, OU = IT, CN = db1.home.me
        Subject Public Key Info:
            Public Key Algorithm: rsaEncryption
                Public-Key: (2048 bit)
                Modulus:
                    00:bb:a5:0c:5b:fb:2f:6d:84:79:20:a1:88:5e:6b:
                    72:5b:ce:64:46:0f:27:6e:37:5e:9a:70:3b:20:74:
                    be:aa:5c:ed:db:17:ea:36:ba:b5:9e:bc:fa:df:57:
                    cd:9b:c3:4f:95:fc:9b:cd:eb:50:f0:ff:3d:50:ca:
                    53:37:2d:e7:cd:ba:b9:de:3f:b9:04:a6:d0:d9:03:
                    c7:45:bc:7e:44:11:16:15:1e:94:5d:3d:44:2e:f5:
                    e6:09:f8:fa:e4:4d:c0:c3:96:c6:f5:de:fe:13:33:
                    46:4b:03:cf:71:0c:d3:54:6c:84:2a:6e:4a:97:f5:
                    5a:53:1c:90:b4:63:7b:d1:a9:af:eb:f7:b9:0b:19:
                    49:94:4d:f4:10:07:fb:ae:fe:8f:e4:cb:9c:3f:b5:
                    84:c4:72:4d:7c:8a:c7:44:06:1d:36:08:38:c4:96:
                    b7:f0:8d:49:58:0b:5e:e7:a6:70:51:93:01:c2:ae:
                    dd:5f:7f:df:1d:16:38:8e:80:32:95:5e:74:72:0a:
                    dd:74:d7:a1:56:7e:4a:59:b8:6d:98:ca:8c:9e:94:
                    cc:e8:ac:94:da:31:fa:4f:54:a9:f6:59:87:4a:fd:
                    f1:b7:1e:55:d0:e4:44:5c:36:42:11:04:95:75:ad:
                    9f:3e:16:6e:7b:ef:aa:69:f7:d3:c2:38:37:20:bc:
                    f6:df
                Exponent: 65537 (0x10001)
        X509v3 extensions:
            X509v3 Subject Alternative Name: 
                DNS:db1.home.me
            X509v3 Subject Key Identifier: 
                B4:A1:C9:07:AA:3F:08:0A:02:DE:59:98:EB:1D:D3:48:61:05:74:57
            X509v3 Authority Key Identifier: 
                B1:7D:D9:BF:9F:83:DC:97:A2:63:C8:DD:09:CB:65:35:DD:0E:0F:9C
    Signature Algorithm: sha256WithRSAEncryption
    Signature Value:
        42:55:cd:c8:ba:a4:e8:07:aa:9c:30:f2:61:b4:b2:92:fe:1b:
        88:77:86:0c:fb:4a:c2:d2:cd:75:16:b8:78:eb:72:3f:fa:c2:
        fd:f6:6c:f0:96:22:26:14:2b:80:26:7c:fd:17:31:26:ba:86:
        27:90:3a:7b:ac:cd:e5:4d:ef:54:1e:ff:0e:1d:21:e0:be:16:
        df:78:07:a7:99:55:f8:2b:e3:44:b8:e9:4f:3d:cb:e5:43:f7:
        4c:6f:40:99:17:ca:cb:6d:b3:78:df:06:a6:31:ee:21:ef:af:
        9f:b9:bf:3d:e7:3b:97:6b:d8:e0:83:0b:33:b3:33:34:10:c8:
        08:69:20:10:73:19:00:82:a0:96:c0:83:34:7b:a4:12:62:14:
        e1:49:88:10:e7:e5:26:74:dc:7e:68:85:54:81:a8:aa:8a:fd:
        92:7d:0b:b3:3d:91:24:d0:da:6a:ff:c6:62:cd:ce:04:f5:0d:
        75:32:b9:2e:5b:3f:05:93:72:1d:c1:b5:e8:28:66:3c:d5:5b:
        d6:8f:f1:e1:af:64:d3:c4:8e:5b:3f:02:01:e7:5d:94:6b:6c:
        44:56:55:bd:a0:92:0c:1d:67:9d:86:14:a1:aa:52:29:73:6d:
        ea:08:0a:c9:14:52:a1:01:8d:83:e7:6f:68:6c:4d:d7:4e:a4:
        94:f3:c7:08
-----BEGIN CERTIFICATE-----
MIIDzDCCArSgAwIBAgIUeZWgwXOnI15aiSb0NVmnr1ik9RowDQYJKoZIhvcNAQEL
BQAwcTELMAkGA1UEBhMCUlUxHDAaBgNVBAgME01vc2tvdnNrYXlhIG9ibGFzdCcx
FDASBgNVBAcMC1ZvbG9rb2xhbXNrMQ0wCwYDVQQKDARIb21lMQswCQYDVQQLDAJJ
VDESMBAGA1UEAwwJKi5ob21lLm1lMB4XDTIzMTIwNzEyMzExNVoXDTI0MTIwNjEy
MzExNVowczELMAkGA1UEBhMCUlUxHDAaBgNVBAgME01vc2tvdnNrYXlhIG9ibGFz
dCcxFDASBgNVBAcMC1ZvbG9rb2xhbXNrMQ0wCwYDVQQKDARIb21lMQswCQYDVQQL
DAJJVDEUMBIGA1UEAwwLZGIxLmhvbWUubWUwggEiMA0GCSqGSIb3DQEBAQUAA4IB
DwAwggEKAoIBAQC7pQxb+y9thHkgoYhea3JbzmRGDyduN16acDsgdL6qXO3bF+o2
urWevPrfV82bw0+V/JvN61Dw/z1QylM3LefNurneP7kEptDZA8dFvH5EERYVHpRd
PUQu9eYJ+PrkTcDDlsb13v4TM0ZLA89xDNNUbIQqbkqX9VpTHJC0Y3vRqa/r97kL
GUmUTfQQB/uu/o/ky5w/tYTEck18isdEBh02CDjElrfwjUlYC17npnBRkwHCrt1f
f98dFjiOgDKVXnRyCt1016FWfkpZuG2YyoyelMzorJTaMfpPVKn2WYdK/fG3HlXQ
5ERcNkIRBJV1rZ8+Fm5776pp99PCODcgvPbfAgMBAAGjWjBYMBYGA1UdEQQPMA2C
C2RiMS5ob21lLm1lMB0GA1UdDgQWBBS0ockHqj8ICgLeWZjrHdNIYQV0VzAfBgNV
HSMEGDAWgBSxfdm/n4Pcl6JjyN0Jy2U13Q4PnDANBgkqhkiG9w0BAQsFAAOCAQEA
QlXNyLqk6AeqnDDyYbSykv4biHeGDPtKwtLNdRa4eOtyP/rC/fZs8JYiJhQrgCZ8
/RcxJrqGJ5A6e6zN5U3vVB7/Dh0h4L4W33gHp5lV+CvjRLjpTz3L5UP3TG9AmRfK
y22zeN8GpjHuIe+vn7m/Pec7l2vY4IMLM7MzNBDICGkgEHMZAIKglsCDNHukEmIU
4UmIEOflJnTcfmiFVIGoqor9kn0Lsz2RJNDaav/GYs3OBPUNdTK5Lls/BZNyHcG1
6ChmPNVb1o/x4a9k08SOWz8CAeddlGtsRFZVvaCSDB1nnYYUoapSKXNt6ggKyRRS
oQGNg+dvaGxN106klPPHCA==
-----END CERTIFICATE-----
