Certificate Request:
    Data:
        Version: 1 (0x0)
        Subject: C = RU, ST = Moskovskaya oblast', L = Volokolamsk, O = Home, OU = IT, CN = db1.home.me
        Subject Public Key Info:
            Public Key Algorithm: rsaEncryption
                Public-Key: (2048 bit)
                Modulus:
                    00:bb:a5:0c:5b:fb:2f:6d:84:79:20:a1:88:5e:6b:
                    72:5b:ce:64:46:0f:27:6e:37:5e:9a:70:3b:20:74:
                    be:aa:5c:ed:db:17:ea:36:ba:b5:9e:bc:fa:df:57:
                    cd:9b:c3:4f:95:fc:9b:cd:eb:50:f0:ff:3d:50:ca:
                    53:37:2d:e7:cd:ba:b9:de:3f:b9:04:a6:d0:d9:03:
                    c7:45:bc:7e:44:11:16:15:1e:94:5d:3d:44:2e:f5:
                    e6:09:f8:fa:e4:4d:c0:c3:96:c6:f5:de:fe:13:33:
                    46:4b:03:cf:71:0c:d3:54:6c:84:2a:6e:4a:97:f5:
                    5a:53:1c:90:b4:63:7b:d1:a9:af:eb:f7:b9:0b:19:
                    49:94:4d:f4:10:07:fb:ae:fe:8f:e4:cb:9c:3f:b5:
                    84:c4:72:4d:7c:8a:c7:44:06:1d:36:08:38:c4:96:
                    b7:f0:8d:49:58:0b:5e:e7:a6:70:51:93:01:c2:ae:
                    dd:5f:7f:df:1d:16:38:8e:80:32:95:5e:74:72:0a:
                    dd:74:d7:a1:56:7e:4a:59:b8:6d:98:ca:8c:9e:94:
                    cc:e8:ac:94:da:31:fa:4f:54:a9:f6:59:87:4a:fd:
                    f1:b7:1e:55:d0:e4:44:5c:36:42:11:04:95:75:ad:
                    9f:3e:16:6e:7b:ef:aa:69:f7:d3:c2:38:37:20:bc:
                    f6:df
                Exponent: 65537 (0x10001)
        Attributes:
            (none)
            Requested Extensions:
    Signature Algorithm: sha256WithRSAEncryption
    Signature Value:
        51:50:f9:52:84:c2:a2:df:43:85:26:9b:d6:b8:a1:ce:fd:34:
        5f:2b:be:bd:dd:8d:50:27:04:fe:d7:85:98:4c:c2:66:a7:ab:
        4f:34:61:0f:e2:b1:c6:79:a4:cf:50:c1:04:0a:20:12:13:3a:
        6c:dc:2a:e1:2d:75:80:34:fb:cd:85:63:d5:e9:22:72:b8:cd:
        60:9c:7a:f4:ee:55:f3:a4:8a:7e:52:be:bd:83:af:73:1d:98:
        c2:33:e5:83:0e:05:76:39:cb:02:78:1c:d2:fe:1f:db:6c:12:
        35:4f:81:3f:88:cb:5a:ef:34:31:92:c9:1c:67:39:f1:c0:8a:
        d2:fe:0b:c7:20:b8:69:73:ef:d5:59:ef:f3:6d:e5:be:5f:29:
        45:c4:09:82:46:e3:70:1e:7f:9c:0e:4d:59:61:23:ce:8d:f7:
        de:44:63:19:35:a1:02:47:02:90:c4:d9:91:0b:a3:15:20:f0:
        34:fe:34:7b:f3:ed:42:80:a9:22:33:34:b2:88:5e:26:15:7e:
        26:d6:b7:94:f5:2f:ba:de:44:7c:cf:03:81:16:a5:a6:7c:4c:
        6a:c8:82:e3:5c:e9:51:e6:22:ae:1c:f0:92:2e:11:20:02:4e:
        1b:ab:d9:02:5b:ba:2b:d8:5f:6a:3f:0c:34:c3:ee:14:be:01:
        50:8b:36:8e
-----BEGIN CERTIFICATE REQUEST-----
MIICuDCCAaACAQAwczELMAkGA1UEBhMCUlUxHDAaBgNVBAgME01vc2tvdnNrYXlh
IG9ibGFzdCcxFDASBgNVBAcMC1ZvbG9rb2xhbXNrMQ0wCwYDVQQKDARIb21lMQsw
CQYDVQQLDAJJVDEUMBIGA1UEAwwLZGIxLmhvbWUubWUwggEiMA0GCSqGSIb3DQEB
AQUAA4IBDwAwggEKAoIBAQC7pQxb+y9thHkgoYhea3JbzmRGDyduN16acDsgdL6q
XO3bF+o2urWevPrfV82bw0+V/JvN61Dw/z1QylM3LefNurneP7kEptDZA8dFvH5E
ERYVHpRdPUQu9eYJ+PrkTcDDlsb13v4TM0ZLA89xDNNUbIQqbkqX9VpTHJC0Y3vR
qa/r97kLGUmUTfQQB/uu/o/ky5w/tYTEck18isdEBh02CDjElrfwjUlYC17npnBR
kwHCrt1ff98dFjiOgDKVXnRyCt1016FWfkpZuG2YyoyelMzorJTaMfpPVKn2WYdK
/fG3HlXQ5ERcNkIRBJV1rZ8+Fm5776pp99PCODcgvPbfAgMBAAGgADANBgkqhkiG
9w0BAQsFAAOCAQEAUVD5UoTCot9DhSab1rihzv00Xyu+vd2NUCcE/teFmEzCZqer
TzRhD+Kxxnmkz1DBBAogEhM6bNwq4S11gDT7zYVj1ekicrjNYJx69O5V86SKflK+
vYOvcx2YwjPlgw4FdjnLAngc0v4f22wSNU+BP4jLWu80MZLJHGc58cCK0v4LxyC4
aXPv1Vnv823lvl8pRcQJgkbjcB5/nA5NWWEjzo333kRjGTWhAkcCkMTZkQujFSDw
NP40e/PtQoCpIjM0soheJhV+Jta3lPUvut5EfM8DgRalpnxMasiC41zpUeYirhzw
ki4RIAJOG6vZAlu6K9hfaj8MNMPuFL4BUIs2jg==
-----END CERTIFICATE REQUEST-----
