Certificate:
    Data:
        Version: 1 (0x0)
        Serial Number:
            0d:ab:8b:a7:d7:77:b2:6f:bf:6b:38:60:c9:13:76:50:6f:d6:fe:26
        Signature Algorithm: sha256WithRSAEncryption
        Issuer: C = RU, ST = Moskovskaya oblast', L = Volokolamsk, O = Home, OU = IT, CN = *.local
        Validity
            Not Before: Jan 19 13:36:23 2024 GMT
            Not After : Jan 18 13:36:23 2025 GMT
        Subject: C = RU, ST = Moskovskaya oblast', L = Volokolamsk, O = Home, OU = IT, CN = postgres
        Subject Public Key Info:
            Public Key Algorithm: rsaEncryption
                Public-Key: (2048 bit)
                Modulus:
                    00:d4:53:b5:44:e9:f3:74:d4:9e:88:e0:22:54:a5:
                    fb:b1:de:6d:05:8b:52:49:82:52:87:3d:83:80:18:
                    92:14:4a:1c:76:8d:bd:6a:26:e6:52:75:43:c3:76:
                    bb:20:38:d8:8c:f3:1f:93:f7:f8:bc:4d:fb:d8:d9:
                    b2:88:12:0d:7a:63:8e:39:ee:bf:ff:1f:5d:67:f0:
                    ef:fa:b9:b2:c8:fd:77:cf:b9:f1:85:ec:fb:d9:d6:
                    8c:c5:bb:7d:24:13:8f:1f:74:20:65:87:71:ed:09:
                    25:c7:b0:1e:bb:54:62:bf:c7:85:0c:43:da:b0:7f:
                    3d:72:7a:6b:94:b5:54:9e:88:f1:a8:52:23:af:9a:
                    e0:e0:23:e8:5d:80:d5:3b:46:2c:d0:8f:2e:12:50:
                    3f:2b:8a:9e:68:16:af:c4:eb:76:69:48:d6:15:1f:
                    8a:8b:a7:50:17:e4:5d:99:c1:77:11:9b:de:f3:b6:
                    00:af:88:66:b2:f2:f2:03:67:c5:6c:bd:c0:9f:d5:
                    fa:ce:f5:bb:db:13:03:67:41:be:22:e7:03:7e:27:
                    a6:53:fb:f6:2d:d4:c6:a4:69:35:b7:b6:ae:67:a8:
                    c0:e8:17:d2:aa:73:9f:42:68:95:7a:fe:d0:4e:5d:
                    59:67:f1:3c:7f:95:f2:71:af:0f:40:b3:f0:e4:f6:
                    07:73
                Exponent: 65537 (0x10001)
    Signature Algorithm: sha256WithRSAEncryption
    Signature Value:
        33:8b:73:ac:fe:f5:06:34:83:d1:84:bb:c8:98:a3:5f:1b:c0:
        fc:ca:08:72:da:fa:7f:e4:c0:c5:78:ba:55:c3:00:50:6a:00:
        3c:22:87:12:89:81:38:14:b5:2c:d3:01:f1:4d:26:2e:fe:31:
        86:33:75:ec:6c:b9:c0:8c:b4:f0:bc:16:ba:d7:2b:04:78:3f:
        3a:e2:03:bc:6a:83:38:bf:1d:66:0b:aa:a2:cc:33:10:a7:28:
        2f:68:30:85:56:a5:b6:4c:0a:de:0c:d6:8f:d7:04:34:0b:b4:
        30:20:0a:e4:87:74:b1:36:7c:4f:ce:d2:a1:5f:9d:40:2b:62:
        28:96:d6:69:5d:3a:4f:a9:d6:a9:f6:f5:57:69:bc:1d:d9:32:
        e1:2e:d0:57:d1:95:2e:42:73:4b:25:14:80:1d:0a:cc:0a:30:
        1e:36:df:fd:77:11:3f:16:ee:a2:b0:a0:c2:86:48:8b:1a:80:
        85:e3:2d:a9:fc:02:0b:2a:13:41:47:7a:8a:6b:aa:ea:83:f2:
        4f:98:72:d4:ff:12:3b:a9:52:92:70:33:a1:b2:d6:3c:48:74:
        2f:e1:1e:35:b2:a0:a9:e7:41:02:bd:cc:6f:0c:08:8e:8e:ef:
        1a:6f:3e:14:ce:bd:41:1e:7e:43:e5:7c:ee:54:38:b4:bf:68:
        47:de:bc:45
-----BEGIN CERTIFICATE-----
MIIDZjCCAk4CFA2ri6fXd7Jvv2s4YMkTdlBv1v4mMA0GCSqGSIb3DQEBCwUAMG8x
CzAJBgNVBAYTAlJVMRwwGgYDVQQIDBNNb3Nrb3Zza2F5YSBvYmxhc3QnMRQwEgYD
VQQHDAtWb2xva29sYW1zazENMAsGA1UECgwESG9tZTELMAkGA1UECwwCSVQxEDAO
BgNVBAMMByoubG9jYWwwHhcNMjQwMTE5MTMzNjIzWhcNMjUwMTE4MTMzNjIzWjBw
MQswCQYDVQQGEwJSVTEcMBoGA1UECAwTTW9za292c2theWEgb2JsYXN0JzEUMBIG
A1UEBwwLVm9sb2tvbGFtc2sxDTALBgNVBAoMBEhvbWUxCzAJBgNVBAsMAklUMREw
DwYDVQQDDAhwb3N0Z3JlczCCASIwDQYJKoZIhvcNAQEBBQADggEPADCCAQoCggEB
ANRTtUTp83TUnojgIlSl+7HebQWLUkmCUoc9g4AYkhRKHHaNvWom5lJ1Q8N2uyA4
2IzzH5P3+LxN+9jZsogSDXpjjjnuv/8fXWfw7/q5ssj9d8+58YXs+9nWjMW7fSQT
jx90IGWHce0JJcewHrtUYr/HhQxD2rB/PXJ6a5S1VJ6I8ahSI6+a4OAj6F2A1TtG
LNCPLhJQPyuKnmgWr8TrdmlI1hUfiounUBfkXZnBdxGb3vO2AK+IZrLy8gNnxWy9
wJ/V+s71u9sTA2dBviLnA34nplP79i3UxqRpNbe2rmeowOgX0qpzn0JolXr+0E5d
WWfxPH+V8nGvD0Cz8OT2B3MCAwEAATANBgkqhkiG9w0BAQsFAAOCAQEAM4tzrP71
BjSD0YS7yJijXxvA/MoIctr6f+TAxXi6VcMAUGoAPCKHEomBOBS1LNMB8U0mLv4x
hjN17Gy5wIy08LwWutcrBHg/OuIDvGqDOL8dZguqoswzEKcoL2gwhValtkwK3gzW
j9cENAu0MCAK5Id0sTZ8T87SoV+dQCtiKJbWaV06T6nWqfb1V2m8Hdky4S7QV9GV
LkJzSyUUgB0KzAowHjbf/XcRPxbuorCgwoZIixqAheMtqfwCCyoTQUd6imuq6oPy
T5hy1P8SO6lSknAzobLWPEh0L+EeNbKgqedBAr3MbwwIjo7vGm8+FM69QR5+Q+V8
7lQ4tL9oR968RQ==
-----END CERTIFICATE-----
